	.file	"hi.cpp"
	.intel_syntax noprefix
	.section .rdata,"dr"
__ZStL19piecewise_construct:
	.space 1
__ZStL13allocator_arg:
	.space 1
__ZStL6ignore:
	.space 1
.lcomm __ZStL8__ioinit,1,1
	.align 4
__ZN9__gnu_cxxL21__default_lock_policyE:
	.long	2
__ZStL10defer_lock:
	.space 1
__ZStL11try_to_lock:
	.space 1
__ZStL10adopt_lock:
	.space 1
	.align 4
__ZNSt15regex_constantsL5icaseE:
	.long	1
	.align 4
__ZNSt15regex_constantsL6nosubsE:
	.long	2
	.align 4
__ZNSt15regex_constantsL8optimizeE:
	.long	4
	.align 4
__ZNSt15regex_constantsL7collateE:
	.long	8
	.align 4
__ZNSt15regex_constantsL10ECMAScriptE:
	.long	16
	.align 4
__ZNSt15regex_constantsL5basicE:
	.long	32
	.align 4
__ZNSt15regex_constantsL8extendedE:
	.long	64
	.align 4
__ZNSt15regex_constantsL3awkE:
	.long	128
	.align 4
__ZNSt15regex_constantsL4grepE:
	.long	256
	.align 4
__ZNSt15regex_constantsL5egrepE:
	.long	512
	.align 4
__ZNSt15regex_constantsL12__polynomialE:
	.long	1024
	.align 4
__ZNSt15regex_constantsL13match_defaultE:
	.space 4
	.align 4
__ZNSt15regex_constantsL13match_not_bolE:
	.long	1
	.align 4
__ZNSt15regex_constantsL13match_not_eolE:
	.long	2
	.align 4
__ZNSt15regex_constantsL13match_not_bowE:
	.long	4
	.align 4
__ZNSt15regex_constantsL13match_not_eowE:
	.long	8
	.align 4
__ZNSt15regex_constantsL9match_anyE:
	.long	16
	.align 4
__ZNSt15regex_constantsL14match_not_nullE:
	.long	32
	.align 4
__ZNSt15regex_constantsL16match_continuousE:
	.long	64
	.align 4
__ZNSt15regex_constantsL16match_prev_availE:
	.long	128
	.align 4
__ZNSt15regex_constantsL14format_defaultE:
	.space 4
	.align 4
__ZNSt15regex_constantsL10format_sedE:
	.long	256
	.align 4
__ZNSt15regex_constantsL14format_no_copyE:
	.long	512
	.align 4
__ZNSt15regex_constantsL17format_first_onlyE:
	.long	1024
	.align 4
__ZNSt15regex_constantsL13error_collateE:
	.space 4
	.align 4
__ZNSt15regex_constantsL11error_ctypeE:
	.long	1
	.align 4
__ZNSt15regex_constantsL12error_escapeE:
	.long	2
	.align 4
__ZNSt15regex_constantsL13error_backrefE:
	.long	3
	.align 4
__ZNSt15regex_constantsL11error_brackE:
	.long	4
	.align 4
__ZNSt15regex_constantsL11error_parenE:
	.long	5
	.align 4
__ZNSt15regex_constantsL11error_braceE:
	.long	6
	.align 4
__ZNSt15regex_constantsL14error_badbraceE:
	.long	7
	.align 4
__ZNSt15regex_constantsL11error_rangeE:
	.long	8
	.align 4
__ZNSt15regex_constantsL11error_spaceE:
	.long	9
	.align 4
__ZNSt15regex_constantsL15error_badrepeatE:
	.long	10
	.align 4
__ZNSt15regex_constantsL16error_complexityE:
	.long	11
	.align 4
__ZNSt15regex_constantsL11error_stackE:
	.long	12
	.align 4
__ZNSt8__detailL19_S_invalid_state_idE:
	.long	-1
	.globl	_fx
	.data
	.align 32
_fx:
	.long	1
	.long	0
	.long	0
	.long	0
	.long	-1
	.long	-1
	.long	0
	.long	0
	.long	1
	.long	0
	.long	1
	.long	0
	.long	-1
	.long	-1
	.long	-1
	.long	-1
	.globl	_fy
	.align 32
_fy:
	.long	0
	.long	0
	.long	1
	.long	0
	.long	0
	.long	0
	.long	-1
	.long	-1
	.long	1
	.long	0
	.long	-1
	.long	-1
	.long	1
	.long	0
	.long	-1
	.long	-1
	.section .rdata,"dr"
	.align 4
LC0:
	.ascii "hi \12 i am dip halder \12 roll 1803067\12\0"
	.text
	.globl	__Z3slvv
	.def	__Z3slvv;	.scl	2;	.type	32;	.endef
__Z3slvv:
LFB7686:
	.cfi_startproc
	push	ebp
	.cfi_def_cfa_offset 8
	.cfi_offset 5, -8
	mov	ebp, esp
	.cfi_def_cfa_register 5
	sub	esp, 24
	mov	DWORD PTR [esp+4], OFFSET FLAT:LC0
	mov	DWORD PTR [esp], OFFSET FLAT:__ZSt4cout
	call	__ZStlsISt11char_traitsIcEERSt13basic_ostreamIcT_ES5_PKc
	nop
	leave
	.cfi_restore 5
	.cfi_def_cfa 4, 4
	ret
	.cfi_endproc
LFE7686:
	.def	___main;	.scl	2;	.type	32;	.endef
	.globl	_main
	.def	_main;	.scl	2;	.type	32;	.endef
_main:
LFB7687:
	.cfi_startproc
	lea	ecx, [esp+4]
	.cfi_def_cfa 1, 0
	and	esp, -16
	push	DWORD PTR [ecx-4]
	push	ebp
	.cfi_escape 0x10,0x5,0x2,0x75,0
	mov	ebp, esp
	push	ecx
	.cfi_escape 0xf,0x3,0x75,0x7c,0x6
	sub	esp, 36
	call	___main
	mov	DWORD PTR [esp], 0
	call	__ZNSt8ios_base15sync_with_stdioEb
	mov	DWORD PTR [esp], 0
	mov	ecx, OFFSET FLAT:__ZSt3cin+8
	call	__ZNSt9basic_iosIcSt11char_traitsIcEE3tieEPSo
	sub	esp, 4
	mov	DWORD PTR [ebp-16], 1
	mov	DWORD PTR [ebp-12], 0
	call	__Z3slvv
	mov	eax, 0
	mov	ecx, DWORD PTR [ebp-4]
	.cfi_def_cfa 1, 0
	leave
	.cfi_restore 5
	lea	esp, [ecx-4]
	.cfi_def_cfa 4, 4
	ret
	.cfi_endproc
LFE7687:
	.def	___tcf_0;	.scl	3;	.type	32;	.endef
___tcf_0:
LFB8226:
	.cfi_startproc
	push	ebp
	.cfi_def_cfa_offset 8
	.cfi_offset 5, -8
	mov	ebp, esp
	.cfi_def_cfa_register 5
	sub	esp, 8
	mov	ecx, OFFSET FLAT:__ZStL8__ioinit
	call	__ZNSt8ios_base4InitD1Ev
	leave
	.cfi_restore 5
	.cfi_def_cfa 4, 4
	ret
	.cfi_endproc
LFE8226:
	.def	__Z41__static_initialization_and_destruction_0ii;	.scl	3;	.type	32;	.endef
__Z41__static_initialization_and_destruction_0ii:
LFB8225:
	.cfi_startproc
	push	ebp
	.cfi_def_cfa_offset 8
	.cfi_offset 5, -8
	mov	ebp, esp
	.cfi_def_cfa_register 5
	sub	esp, 24
	cmp	DWORD PTR [ebp+8], 1
	jne	L7
	cmp	DWORD PTR [ebp+12], 65535
	jne	L7
	mov	ecx, OFFSET FLAT:__ZStL8__ioinit
	call	__ZNSt8ios_base4InitC1Ev
	mov	DWORD PTR [esp], OFFSET FLAT:___tcf_0
	call	_atexit
L7:
	nop
	leave
	.cfi_restore 5
	.cfi_def_cfa 4, 4
	ret
	.cfi_endproc
LFE8225:
	.def	__GLOBAL__sub_I_fx;	.scl	3;	.type	32;	.endef
__GLOBAL__sub_I_fx:
LFB8227:
	.cfi_startproc
	push	ebp
	.cfi_def_cfa_offset 8
	.cfi_offset 5, -8
	mov	ebp, esp
	.cfi_def_cfa_register 5
	sub	esp, 24
	mov	DWORD PTR [esp+4], 65535
	mov	DWORD PTR [esp], 1
	call	__Z41__static_initialization_and_destruction_0ii
	leave
	.cfi_restore 5
	.cfi_def_cfa 4, 4
	ret
	.cfi_endproc
LFE8227:
	.section	.ctors,"w"
	.align 4
	.long	__GLOBAL__sub_I_fx
	.ident	"GCC: (MinGW.org GCC-6.3.0-1) 6.3.0"
	.def	__ZStlsISt11char_traitsIcEERSt13basic_ostreamIcT_ES5_PKc;	.scl	2;	.type	32;	.endef
	.def	__ZNSt8ios_base15sync_with_stdioEb;	.scl	2;	.type	32;	.endef
	.def	__ZNSt9basic_iosIcSt11char_traitsIcEE3tieEPSo;	.scl	2;	.type	32;	.endef
	.def	__ZNSt8ios_base4InitD1Ev;	.scl	2;	.type	32;	.endef
	.def	__ZNSt8ios_base4InitC1Ev;	.scl	2;	.type	32;	.endef
	.def	_atexit;	.scl	2;	.type	32;	.endef
